target datalayout = "e-m:e-p270:32:32-p271:32:32-p272:64:64-i64:64-i128:128-f80:128-n8:16:32:64-S128"
target triple = "x86_64-pc-linux-gnu"

%struct.macroblockd = type { i32, i32, i32, i8, [3 x %struct.macroblockd_plane], %struct.TileInfo, ptr, i8, i8, i8, i8, ptr, ptr, ptr, ptr, ptr, i32, i32, i32, i32, i32, [2 x ptr], ptr, [3 x ptr], [3 x [32 x i8]], ptr, [32 x i8], ptr, ptr, [32 x i8], [3 x %struct.WienerInfo], [3 x %struct.SgrprojInfo], i8, i8, [29 x [8 x %struct.candidate_mv]], [29 x [8 x i16]], i8, i8, [8 x i8], ptr, i32, [8 x i32], [8 x i32], i32, i32, ptr, ptr, i8, [4 x i8], [4 x i8], [7 x i8], [32768 x i8], %struct.cfl_ctx, [2 x i16], ptr, [2 x ptr] }
%struct.macroblockd_plane = type { i8, i32, i32, %struct.buf_2d, [2 x %struct.buf_2d], ptr, ptr, [8 x [2 x i16]], ptr, i8, i8, [8 x [19 x ptr]], [8 x [19 x ptr]] }
%struct.buf_2d = type { ptr, ptr, i32, i32, i32 }
%struct.TileInfo = type { i32, i32, i32, i32, i32, i32 }
%struct.WienerInfo = type { [8 x i16], [8 x i16] }
%struct.SgrprojInfo = type { i32, [2 x i32] }
%struct.candidate_mv = type { %union.int_mv, %union.int_mv }
%union.int_mv = type { i32 }
%struct.cfl_ctx = type { [1024 x i16], [1024 x i16], [2 x i32], i32, [2 x [32 x i16]], i32, i32, i32, i32, i32, i32 }
%struct.MB_MODE_INFO = type <{ i8, i8, i8, i8, i32, [2 x %union.int_mv], [2 x i8], [2 x i8], %union.int_interpfilters, i8, i8, i8, i8, %struct.WarpedMotionParams, i8, i8, [6 x i8], %struct.INTERINTER_COMPOUND_DATA, [2 x i8], %struct.FILTER_INTRA_MODE_INFO, i8, i8, %struct.PALETTE_MODE_INFO, i8, i8, [16 x i8], i8, [4 x i8], i16, [7 x i8] }>
%union.int_interpfilters = type { i32 }
%struct.WarpedMotionParams = type { [8 x i32], i16, i16, i16, i16, i8, i8 }
%struct.INTERINTER_COMPOUND_DATA = type { ptr, i8, i8, i8, i8 }
%struct.FILTER_INTRA_MODE_INFO = type { i8, i8 }
%struct.PALETTE_MODE_INFO = type { [24 x i16], [2 x i8] }

; Function Attrs: nounwind uwtable
define internal i32 @is_intrabc_block(ptr noundef %0) #0 {
  %2 = alloca ptr, align 8
  store ptr %0, ptr %2, align 8
  %3 = load ptr, ptr %2, align 8
  %4 = getelementptr inbounds nuw %struct.MB_MODE_INFO, ptr %3, i32 0, i32 28
  %5 = load i16, ptr %4, align 1
  %6 = lshr i16 %5, 7
  %7 = and i16 %6, 1
  %8 = trunc i16 %7 to i8
  %9 = zext i8 %8 to i32
  ret i32 %9
}

; Function Attrs: nounwind uwtable
define internal i32 @is_inter_block(ptr noundef %0) #0 {
  %2 = alloca ptr, align 8
  store ptr %0, ptr %2, align 8
  %3 = load ptr, ptr %2, align 8
  %4 = call i32 @is_intrabc_block(ptr noundef %3)
  %5 = icmp ne i32 %4, 0
  br i1 %5, label %13, label %6

6:                                                ; preds = %1
  %7 = load ptr, ptr %2, align 8
  %8 = getelementptr inbounds nuw %struct.MB_MODE_INFO, ptr %7, i32 0, i32 6
  %9 = getelementptr inbounds [2 x i8], ptr %8, i64 0, i64 0
  %10 = load i8, ptr %9, align 8
  %11 = sext i8 %10 to i32
  %12 = icmp sgt i32 %11, 0
  br label %13

13:                                               ; preds = %6, %1
  %14 = phi i1 [ true, %1 ], [ %12, %6 ]
  %15 = zext i1 %14 to i32
  ret i32 %15
}

; Function Attrs: nounwind uwtable
define hidden i32 @av1_get_intra_inter_context(ptr noundef %0) #0 {
  %2 = alloca i32, align 4
  %3 = alloca ptr, align 8
  %4 = alloca ptr, align 8
  %5 = alloca ptr, align 8
  %6 = alloca i32, align 4
  %7 = alloca i32, align 4
  %8 = alloca i32, align 4
  %9 = alloca i32, align 4
  store ptr %0, ptr %3, align 8
  %10 = load ptr, ptr %3, align 8
  %11 = getelementptr inbounds nuw %struct.macroblockd, ptr %10, i32 0, i32 12
  %12 = load ptr, ptr %11, align 16
  store ptr %12, ptr %4, align 8
  %13 = load ptr, ptr %3, align 8
  %14 = getelementptr inbounds nuw %struct.macroblockd, ptr %13, i32 0, i32 11
  %15 = load ptr, ptr %14, align 8
  store ptr %15, ptr %5, align 8
  %16 = load ptr, ptr %3, align 8
  %17 = getelementptr inbounds nuw %struct.macroblockd, ptr %16, i32 0, i32 7
  %18 = load i8, ptr %17, align 16
  %19 = trunc i8 %18 to i1
  %20 = zext i1 %19 to i32
  store i32 %20, ptr %6, align 4
  %21 = load ptr, ptr %3, align 8
  %22 = getelementptr inbounds nuw %struct.macroblockd, ptr %21, i32 0, i32 8
  %23 = load i8, ptr %22, align 1
  %24 = trunc i8 %23 to i1
  %25 = zext i1 %24 to i32
  store i32 %25, ptr %7, align 4
  %26 = load i32, ptr %6, align 4
  %27 = icmp ne i32 %26, 0
  br i1 %27, label %28, label %59

28:                                               ; preds = %1
  %29 = load i32, ptr %7, align 4
  %30 = icmp ne i32 %29, 0
  br i1 %30, label %31, label %59

31:                                               ; preds = %28
  %32 = load ptr, ptr %4, align 8
  %33 = call i32 @is_inter_block(ptr noundef %32)
  %34 = icmp ne i32 %33, 0
  %35 = xor i1 %34, true
  %36 = zext i1 %35 to i32
  store i32 %36, ptr %8, align 4
  %37 = load ptr, ptr %5, align 8
  %38 = call i32 @is_inter_block(ptr noundef %37)
  %39 = icmp ne i32 %38, 0
  %40 = xor i1 %39, true
  %41 = zext i1 %40 to i32
  store i32 %41, ptr %9, align 4
  %42 = load i32, ptr %9, align 4
  %43 = icmp ne i32 %42, 0
  br i1 %43, label %44, label %48

44:                                               ; preds = %31
  %45 = load i32, ptr %8, align 4
  %46 = icmp ne i32 %45, 0
  br i1 %46, label %47, label %48

47:                                               ; preds = %44
  br label %57

48:                                               ; preds = %44, %31
  %49 = load i32, ptr %9, align 4
  %50 = icmp ne i32 %49, 0
  br i1 %50, label %54, label %51

51:                                               ; preds = %48
  %52 = load i32, ptr %8, align 4
  %53 = icmp ne i32 %52, 0
  br label %54

54:                                               ; preds = %51, %48
  %55 = phi i1 [ true, %48 ], [ %53, %51 ]
  %56 = zext i1 %55 to i32
  br label %57

57:                                               ; preds = %54, %47
  %58 = phi i32 [ 3, %47 ], [ %56, %54 ]
  store i32 %58, ptr %2, align 4
  br label %80

59:                                               ; preds = %28, %1
  %60 = load i32, ptr %6, align 4
  %61 = icmp ne i32 %60, 0
  br i1 %61, label %65, label %62

62:                                               ; preds = %59
  %63 = load i32, ptr %7, align 4
  %64 = icmp ne i32 %63, 0
  br i1 %64, label %65, label %79

65:                                               ; preds = %62, %59
  %66 = load i32, ptr %6, align 4
  %67 = icmp ne i32 %66, 0
  br i1 %67, label %68, label %70

68:                                               ; preds = %65
  %69 = load ptr, ptr %4, align 8
  br label %72

70:                                               ; preds = %65
  %71 = load ptr, ptr %5, align 8
  br label %72

72:                                               ; preds = %70, %68
  %73 = phi ptr [ %69, %68 ], [ %71, %70 ]
  %74 = call i32 @is_inter_block(ptr noundef %73)
  %75 = icmp ne i32 %74, 0
  %76 = xor i1 %75, true
  %77 = zext i1 %76 to i32
  %78 = mul nsw i32 2, %77
  store i32 %78, ptr %2, align 4
  br label %80

79:                                               ; preds = %62
  store i32 0, ptr %2, align 4
  br label %80

80:                                               ; preds = %79, %72, %57
  %81 = load i32, ptr %2, align 4
  ret i32 %81
}