; Function Attrs: mustprogress nofree norecurse nosync nounwind willreturn memory(read, inaccessiblemem: none) uwtable
define hidden range(i32 0, 4) i32 @av1_get_intra_inter_context(ptr nocapture noundef readonly %0) local_unnamed_addr #0 {
  %2 = getelementptr inbounds nuw i8, ptr %0, i64 7888
  %3 = load ptr, ptr %2, align 16
  %4 = getelementptr inbounds nuw i8, ptr %0, i64 7880
  %5 = load ptr, ptr %4, align 8
  %6 = getelementptr inbounds nuw i8, ptr %0, i64 7872
  %7 = load i8, ptr %6, align 16
  %8 = trunc i8 %7 to i1
  %9 = getelementptr inbounds nuw i8, ptr %0, i64 7873
  %10 = load i8, ptr %9, align 1
  %11 = trunc i8 %10 to i1
  %or.cond = select i1 %8, i1 %11, i1 false
  br i1 %or.cond, label %12, label %28

12:                                               ; preds = %1
  %13 = getelementptr i8, ptr %3, i64 175
  %.val.i = load i16, ptr %13, align 1
  %14 = and i16 %.val.i, 128
  %.not.i = icmp eq i16 %14, 0
  br i1 %.not.i, label %15, label %is_inter_block.exit

15:                                               ; preds = %12
  %16 = getelementptr inbounds nuw i8, ptr %3, i64 16
  %17 = load i8, ptr %16, align 8
  %18 = icmp slt i8 %17, 1
  br label %is_inter_block.exit

is_inter_block.exit:                              ; preds = %12, %15
  %.not = phi i1 [ false, %12 ], [ %18, %15 ]
  %19 = getelementptr i8, ptr %5, i64 175
  %.val.i23 = load i16, ptr %19, align 1
  %20 = and i16 %.val.i23, 128
  %.not.i24 = icmp eq i16 %20, 0
  br i1 %.not.i24, label %21, label %is_inter_block.exit25

21:                                               ; preds = %is_inter_block.exit
  %22 = getelementptr inbounds nuw i8, ptr %5, i64 16
  %23 = load i8, ptr %22, align 8
  %24 = icmp slt i8 %23, 1
  br label %is_inter_block.exit25

is_inter_block.exit25:                            ; preds = %is_inter_block.exit, %21
  %.not22 = phi i1 [ false, %is_inter_block.exit ], [ %24, %21 ]
  %or.cond3 = select i1 %.not22, i1 %.not, i1 false
  %25 = select i1 %.not22, i1 true, i1 %.not
  %26 = zext i1 %25 to i32
  %27 = select i1 %or.cond3, i32 3, i32 %26
  br label %is_inter_block.exit28

28:                                               ; preds = %1
  %or.cond5 = select i1 %8, i1 true, i1 %11
  br i1 %or.cond5, label %29, label %is_inter_block.exit28

29:                                               ; preds = %28
  %30 = select i1 %8, ptr %3, ptr %5
  %31 = getelementptr i8, ptr %30, i64 175
  %.val.i26 = load i16, ptr %31, align 1
  %32 = and i16 %.val.i26, 128
  %.not.i27 = icmp eq i16 %32, 0
  br i1 %.not.i27, label %33, label %is_inter_block.exit28

33:                                               ; preds = %29
  %34 = getelementptr inbounds nuw i8, ptr %30, i64 16
  %35 = load i8, ptr %34, align 8
  %36 = icmp sgt i8 %35, 0
  %37 = select i1 %36, i32 0, i32 2
  br label %is_inter_block.exit28

is_inter_block.exit28:                            ; preds = %33, %29, %28, %is_inter_block.exit25
  %.0 = phi i32 [ %27, %is_inter_block.exit25 ], [ 0, %28 ], [ 0, %29 ], [ %37, %33 ]
  ret i32 %.0
}